; Function Attrs: mustprogress uwtable
define noundef i32 @_Z29tsi_frame_protector_unprotectP19tsi_frame_protectorPKhPmPhS3_(ptr noundef %0, ptr noundef %1, ptr noundef %2, ptr noundef %3, ptr noundef %4) local_unnamed_addr #4 {
  %6 = icmp eq ptr %0, null
  br i1 %6, label %20, label %7

7:                                                ; preds = %5
  %8 = load ptr, ptr %0, align 8, !tbaa !3
  %9 = icmp eq ptr %8, null
  %10 = icmp eq ptr %1, null
  %or.cond = or i1 %10, %9
  %11 = icmp eq ptr %2, null
  %or.cond3 = or i1 %11, %or.cond
  %12 = icmp eq ptr %3, null
  %or.cond5 = or i1 %12, %or.cond3
  %13 = icmp eq ptr %4, null
  %or.cond7 = or i1 %13, %or.cond5
  br i1 %or.cond7, label %20, label %14

14:                                               ; preds = %7
  %15 = getelementptr inbounds nuw i8, ptr %8, i64 16
  %16 = load ptr, ptr %15, align 8, !tbaa !12
  %17 = icmp eq ptr %16, null
  br i1 %17, label %20, label %18

18:                                               ; preds = %14
  %19 = tail call noundef i32 %16(ptr noundef nonnull %0, ptr noundef nonnull %1, ptr noundef nonnull %2, ptr noundef nonnull %3, ptr noundef nonnull %4)
  br label %20

20:                                               ; preds = %14, %5, %7, %18
  %.0 = phi i32 [ %19, %18 ], [ 2, %7 ], [ 2, %5 ], [ 6, %14 ]
  ret i32 %.0
}